; Function Attrs: nounwind uwtable
define ptr @l_List_allM___at_Lean_isEnumType___spec__1___rarg___lambda__1(ptr noundef %0, ptr noundef %1) local_unnamed_addr #0 {
  %3 = ptrtoint ptr %1 to i64
  %4 = and i64 %3, 1
  %.not.i37 = icmp eq i64 %4, 0
  br i1 %.not.i37, label %8, label %5

5:                                                ; preds = %2
  %6 = lshr i64 %3, 1
  %7 = trunc i64 %6 to i32
  br label %lean_obj_tag.exit

8:                                                ; preds = %2
  %9 = getelementptr i8, ptr %1, i64 4
  %.val.i = load i32, ptr %9, align 4
  %10 = lshr i32 %.val.i, 24
  br label %lean_obj_tag.exit

lean_obj_tag.exit:                                ; preds = %5, %8
  %.0.i38 = phi i32 [ %7, %5 ], [ %10, %8 ]
  %11 = icmp eq i32 %.0.i38, 6
  br i1 %11, label %12, label %60

12:                                               ; preds = %lean_obj_tag.exit
  %13 = getelementptr inbounds nuw i8, ptr %1, i64 8
  %14 = load ptr, ptr %13, align 8, !tbaa !10
  %15 = getelementptr inbounds nuw i8, ptr %0, i64 8
  %16 = load ptr, ptr %15, align 8, !tbaa !10
  %17 = ptrtoint ptr %16 to i64
  %18 = and i64 %17, 1
  %.not52 = icmp eq i64 %18, 0
  br i1 %.not52, label %19, label %lean_inc.exit27

19:                                               ; preds = %12
  %.val.i39 = load i32, ptr %16, align 4, !tbaa !4
  %20 = icmp sgt i32 %.val.i39, 0
  br i1 %20, label %21, label %23, !prof !9

21:                                               ; preds = %19
  %22 = add nuw i32 %.val.i39, 1
  store i32 %22, ptr %16, align 4, !tbaa !4
  br label %lean_inc.exit27

23:                                               ; preds = %19
  %.not.i40 = icmp eq i32 %.val.i39, 0
  br i1 %.not.i40, label %lean_inc.exit27, label %24

24:                                               ; preds = %23
  tail call void @lean_inc_ref_cold(ptr noundef nonnull %16) #4
  br label %lean_inc.exit27

lean_inc.exit27:                                  ; preds = %24, %23, %21, %12
  %25 = ptrtoint ptr %0 to i64
  %26 = and i64 %25, 1
  %.not53 = icmp eq i64 %26, 0
  br i1 %.not53, label %27, label %lean_dec.exit30

27:                                               ; preds = %lean_inc.exit27
  %28 = load i32, ptr %0, align 4, !tbaa !4
  %29 = icmp sgt i32 %28, 1
  br i1 %29, label %30, label %32, !prof !9

30:                                               ; preds = %27
  %31 = add nsw i32 %28, -1
  store i32 %31, ptr %0, align 4, !tbaa !4
  br label %lean_dec.exit30

32:                                               ; preds = %27
  %.not.i = icmp eq i32 %28, 0
  br i1 %.not.i, label %lean_dec.exit30, label %33

33:                                               ; preds = %32
  tail call void @lean_dec_ref_cold(ptr noundef nonnull %0) #4
  br label %lean_dec.exit30

lean_dec.exit30:                                  ; preds = %33, %32, %30, %lean_inc.exit27
  %34 = getelementptr inbounds nuw i8, ptr %16, i64 16
  %35 = load ptr, ptr %34, align 8, !tbaa !10
  %36 = ptrtoint ptr %35 to i64
  %37 = and i64 %36, 1
  %.not54 = icmp eq i64 %37, 0
  br i1 %.not54, label %38, label %lean_inc.exit26

38:                                               ; preds = %lean_dec.exit30
  %.val.i41 = load i32, ptr %35, align 4, !tbaa !4
  %39 = icmp sgt i32 %.val.i41, 0
  br i1 %39, label %40, label %42, !prof !9

40:                                               ; preds = %38
  %41 = add nuw i32 %.val.i41, 1
  store i32 %41, ptr %35, align 4, !tbaa !4
  br label %lean_inc.exit26

42:                                               ; preds = %38
  %.not.i42 = icmp eq i32 %.val.i41, 0
  br i1 %.not.i42, label %lean_inc.exit26, label %43

43:                                               ; preds = %42
  tail call void @lean_inc_ref_cold(ptr noundef nonnull %35) #4
  br label %lean_inc.exit26

lean_inc.exit26:                                  ; preds = %43, %42, %40, %lean_dec.exit30
  br i1 %.not52, label %44, label %lean_dec.exit29

44:                                               ; preds = %lean_inc.exit26
  %45 = load i32, ptr %16, align 4, !tbaa !4
  %46 = icmp sgt i32 %45, 1
  br i1 %46, label %47, label %49, !prof !9

47:                                               ; preds = %44
  %48 = add nsw i32 %45, -1
  store i32 %48, ptr %16, align 4, !tbaa !4
  br label %lean_dec.exit29

49:                                               ; preds = %44
  %.not.i31 = icmp eq i32 %45, 0
  br i1 %.not.i31, label %lean_dec.exit29, label %50

50:                                               ; preds = %49
  tail call void @lean_dec_ref_cold(ptr noundef nonnull %16) #4
  br label %lean_dec.exit29

lean_dec.exit29:                                  ; preds = %50, %49, %47, %lean_inc.exit26
  %51 = getelementptr inbounds nuw i8, ptr %14, i64 40
  %52 = load ptr, ptr %51, align 8, !tbaa !10
  %53 = ptrtoint ptr %52 to i64
  %54 = and i64 %53, 1
  %.not55 = icmp eq i64 %54, 0
  br i1 %.not55, label %.critedge.i, label %55, !prof !18

55:                                               ; preds = %lean_dec.exit29
  %56 = icmp eq ptr %52, inttoptr (i64 1 to ptr)
  br label %lean_nat_eq.exit

.critedge.i:                                      ; preds = %lean_dec.exit29
  %57 = tail call zeroext i1 @lean_nat_big_eq(ptr noundef %52, ptr noundef nonnull inttoptr (i64 1 to ptr)) #4
  br label %lean_nat_eq.exit

lean_nat_eq.exit:                                 ; preds = %55, %.critedge.i
  %.0.i = phi i1 [ %56, %55 ], [ %57, %.critedge.i ]
  %58 = select i1 %.0.i, ptr inttoptr (i64 3 to ptr), ptr inttoptr (i64 1 to ptr)
  %59 = tail call ptr @lean_apply_2(ptr noundef %35, ptr noundef nonnull inttoptr (i64 1 to ptr), ptr noundef nonnull %58) #4
  br label %98

60:                                               ; preds = %lean_obj_tag.exit
  %61 = getelementptr inbounds nuw i8, ptr %0, i64 8
  %62 = load ptr, ptr %61, align 8, !tbaa !10
  %63 = ptrtoint ptr %62 to i64
  %64 = and i64 %63, 1
  %.not = icmp eq i64 %64, 0
  br i1 %.not, label %65, label %lean_inc.exit25

65:                                               ; preds = %60
  %.val.i44 = load i32, ptr %62, align 4, !tbaa !4
  %66 = icmp sgt i32 %.val.i44, 0
  br i1 %66, label %67, label %69, !prof !9

67:                                               ; preds = %65
  %68 = add nuw i32 %.val.i44, 1
  store i32 %68, ptr %62, align 4, !tbaa !4
  br label %lean_inc.exit25

69:                                               ; preds = %65
  %.not.i45 = icmp eq i32 %.val.i44, 0
  br i1 %.not.i45, label %lean_inc.exit25, label %70

70:                                               ; preds = %69
  tail call void @lean_inc_ref_cold(ptr noundef nonnull %62) #4
  br label %lean_inc.exit25

lean_inc.exit25:                                  ; preds = %70, %69, %67, %60
  %71 = ptrtoint ptr %0 to i64
  %72 = and i64 %71, 1
  %.not50 = icmp eq i64 %72, 0
  br i1 %.not50, label %73, label %lean_dec.exit28

73:                                               ; preds = %lean_inc.exit25
  %74 = load i32, ptr %0, align 4, !tbaa !4
  %75 = icmp sgt i32 %74, 1
  br i1 %75, label %76, label %78, !prof !9

76:                                               ; preds = %73
  %77 = add nsw i32 %74, -1
  store i32 %77, ptr %0, align 4, !tbaa !4
  br label %lean_dec.exit28

78:                                               ; preds = %73
  %.not.i33 = icmp eq i32 %74, 0
  br i1 %.not.i33, label %lean_dec.exit28, label %79

79:                                               ; preds = %78
  tail call void @lean_dec_ref_cold(ptr noundef nonnull %0) #4
  br label %lean_dec.exit28

lean_dec.exit28:                                  ; preds = %79, %78, %76, %lean_inc.exit25
  %80 = getelementptr inbounds nuw i8, ptr %62, i64 16
  %81 = load ptr, ptr %80, align 8, !tbaa !10
  %82 = ptrtoint ptr %81 to i64
  %83 = and i64 %82, 1
  %.not51 = icmp eq i64 %83, 0
  br i1 %.not51, label %84, label %lean_inc.exit

84:                                               ; preds = %lean_dec.exit28
  %.val.i47 = load i32, ptr %81, align 4, !tbaa !4
  %85 = icmp sgt i32 %.val.i47, 0
  br i1 %85, label %86, label %88, !prof !9

86:                                               ; preds = %84
  %87 = add nuw i32 %.val.i47, 1
  store i32 %87, ptr %81, align 4, !tbaa !4
  br label %lean_inc.exit

88:                                               ; preds = %84
  %.not.i48 = icmp eq i32 %.val.i47, 0
  br i1 %.not.i48, label %lean_inc.exit, label %89

89:                                               ; preds = %88
  tail call void @lean_inc_ref_cold(ptr noundef nonnull %81) #4
  br label %lean_inc.exit

lean_inc.exit:                                    ; preds = %89, %88, %86, %lean_dec.exit28
  br i1 %.not, label %90, label %lean_dec.exit

90:                                               ; preds = %lean_inc.exit
  %91 = load i32, ptr %62, align 4, !tbaa !4
  %92 = icmp sgt i32 %91, 1
  br i1 %92, label %93, label %95, !prof !9

93:                                               ; preds = %90
  %94 = add nsw i32 %91, -1
  store i32 %94, ptr %62, align 4, !tbaa !4
  br label %lean_dec.exit

95:                                               ; preds = %90
  %.not.i35 = icmp eq i32 %91, 0
  br i1 %.not.i35, label %lean_dec.exit, label %96

96:                                               ; preds = %95
  tail call void @lean_dec_ref_cold(ptr noundef nonnull %62) #4
  br label %lean_dec.exit

lean_dec.exit:                                    ; preds = %96, %95, %93, %lean_inc.exit
  %97 = tail call ptr @lean_apply_2(ptr noundef %81, ptr noundef nonnull inttoptr (i64 1 to ptr), ptr noundef nonnull inttoptr (i64 1 to ptr)) #4
  br label %98

98:                                               ; preds = %lean_dec.exit, %lean_nat_eq.exit
  %.0 = phi ptr [ %59, %lean_nat_eq.exit ], [ %97, %lean_dec.exit ]
  ret ptr %.0
}